target datalayout = "e-m:e-p270:32:32-p271:32:32-p272:64:64-i64:64-i128:128-f80:128-n8:16:32:64-S128"
target triple = "x86_64-pc-linux-gnu"

@g_assert_poison = external global ptr, align 8
@.str = private unnamed_addr constant [58 x i8] c"src/hotspot/cpu/x86/gc/shared/barrierSetAssembler_x86.cpp\00", align 1
@.str.8 = private unnamed_addr constant [25 x i8] c"Invalid register size %d\00", align 1

; Function Attrs: mustprogress nounwind uwtable
define hidden noundef i32 @_ZN17SaveLiveRegisters22xmm_ideal_reg_for_sizeEi(i32 noundef %0) #1 align 2 {
  %2 = alloca i32, align 4
  %3 = alloca i32, align 4
  store i32 %0, ptr %3, align 4
  %4 = load i32, ptr %3, align 4
  switch i32 %4, label %9 [
    i32 8, label %5
    i32 16, label %6
    i32 32, label %7
    i32 64, label %8
  ]

5:                                                ; preds = %1
  store i32 10, ptr %2, align 4
  br label %14

6:                                                ; preds = %1
  store i32 11, ptr %2, align 4
  br label %14

7:                                                ; preds = %1
  store i32 12, ptr %2, align 4
  br label %14

8:                                                ; preds = %1
  store i32 13, ptr %2, align 4
  br label %14

9:                                                ; preds = %1
  br label %10

10:                                               ; preds = %9
  %11 = load ptr, ptr @g_assert_poison, align 8
  store i8 88, ptr %11, align 1
  %12 = load i32, ptr %3, align 4
  call void (i32, ptr, i32, ptr, ...) @_Z12report_fatal11VMErrorTypePKciS1_z(i32 noundef -536870912, ptr noundef @.str, i32 noundef 527, ptr noundef @.str.8, i32 noundef %12) #7
  unreachable

13:                                               ; No predecessors!
  store i32 0, ptr %2, align 4
  br label %14

14:                                               ; preds = %13, %8, %7, %6, %5
  %15 = load i32, ptr %2, align 4
  ret i32 %15
}