; Function Attrs: mustprogress nounwind uwtable
define hidden noundef range(i32 10, 14) i32 @_ZN17SaveLiveRegisters22xmm_ideal_reg_for_sizeEi(i32 noundef %0) local_unnamed_addr #0 align 2 {
  %2 = add i32 %0, -8
  %3 = tail call i32 @llvm.fshl.i32(i32 %2, i32 %2, i32 29)
  %4 = icmp ult i32 %3, 8
  br i1 %4, label %switch.hole_check, label %5

5:                                                ; preds = %switch.hole_check, %1
  %6 = load ptr, ptr @g_assert_poison, align 8
  store i8 88, ptr %6, align 1
  tail call void (i32, ptr, i32, ptr, ...) @_Z12report_fatal11VMErrorTypePKciS1_z(i32 noundef -536870912, ptr noundef nonnull @.str, i32 noundef 527, ptr noundef nonnull @.str.8, i32 noundef %0) #13
  unreachable

switch.hole_check:                                ; preds = %1
  %switch.maskindex = trunc nuw i32 %3 to i8
  %switch.shifted = lshr i8 -117, %switch.maskindex
  %switch.lobit = trunc i8 %switch.shifted to i1
  br i1 %switch.lobit, label %switch.lookup, label %5

switch.lookup:                                    ; preds = %switch.hole_check
  %7 = zext nneg i32 %3 to i64
  %switch.gep = getelementptr inbounds [8 x i32], ptr @switch.table._ZN17SaveLiveRegisters20xmm_register_restoreERKNS_15XMMRegisterDataE, i64 0, i64 %7
  %switch.load = load i32, ptr %switch.gep, align 4
  ret i32 %switch.load
}